target datalayout = "e-m:e-p270:32:32-p271:32:32-p272:64:64-i64:64-i128:128-f80:128-n8:16:32:64-S128"
target triple = "x86_64-pc-linux-gnu"

%struct.H5B_class_t = type { i32, i64, ptr, ptr, ptr, ptr, ptr, ptr, i8, i8, i32, ptr, ptr, ptr, ptr }
%struct.H5O_stab_t = type { i64, i64 }
%struct.H5O_loc_t = type { ptr, i64, i8 }
%struct.H5G_bt_common_t = type { ptr, ptr, i64 }
%struct.H5G_bt_rm_t = type { %struct.H5G_bt_common_t, ptr }

@H5B_SNODE = external global [1 x %struct.H5B_class_t], align 16
@.str = private unnamed_addr constant [101 x i8] c"generated/home/dtcxzyw/WorkSpace/Projects/compilers/llvm-opt-benchmark/bench/hdf5/hdf5/src/H5Gstab.c\00", align 1
@H5E_SYM_g = external global i64, align 8
@H5E_CANTINIT_g = external global i64, align 8
@H5E_PROTECT_g = external global i64, align 8
@.str.3 = private unnamed_addr constant [36 x i8] c"unable to protect symbol table heap\00", align 1
@.str.6 = private unnamed_addr constant [38 x i8] c"unable to unprotect symbol table heap\00", align 1
@H5E_BADMESG_g = external global i64, align 8
@.str.10 = private unnamed_addr constant [19 x i8] c"not a symbol table\00", align 1
@__func__.H5G__stab_remove = private unnamed_addr constant [17 x i8] c"H5G__stab_remove\00", align 1
@.str.12 = private unnamed_addr constant [23 x i8] c"unable to remove entry\00", align 1

; Function Attrs: nounwind uwtable
define i32 @H5G__stab_remove(ptr noundef %0, ptr noundef %1, ptr noundef %2) #0 {
  %4 = alloca ptr, align 8
  %5 = alloca ptr, align 8
  %6 = alloca ptr, align 8
  %7 = alloca ptr, align 8
  %8 = alloca %struct.H5O_stab_t, align 8
  %9 = alloca %struct.H5G_bt_rm_t, align 8
  %10 = alloca i32, align 4
  %11 = alloca i8, align 1
  store ptr %0, ptr %4, align 8
  store ptr %1, ptr %5, align 8
  store ptr %2, ptr %6, align 8
  store ptr null, ptr %7, align 8
  store i32 0, ptr %10, align 4
  store i8 0, ptr %11, align 1
  %12 = load ptr, ptr %4, align 8
  %13 = call ptr @H5O_msg_read(ptr noundef %12, i32 noundef 17, ptr noundef %8)
  %14 = icmp eq ptr null, %13
  br i1 %14, label %15, label %30

15:                                               ; preds = %3
  br label %16

16:                                               ; preds = %15
  br label %17

17:                                               ; preds = %16
  br label %18

18:                                               ; preds = %17
  %19 = load i64, ptr @H5E_SYM_g, align 8
  %20 = load i64, ptr @H5E_BADMESG_g, align 8
  %21 = call i32 (ptr, ptr, i32, i64, i64, ptr, ...) @H5E_printf_stack(ptr noundef @.str, ptr noundef @__func__.H5G__stab_remove, i32 noundef 324, i64 noundef %19, i64 noundef %20, ptr noundef @.str.10)
  br label %22

22:                                               ; preds = %18
  store i8 1, ptr %11, align 1
  %23 = load i8, ptr %11, align 1
  %24 = trunc i8 %23 to i1
  %25 = zext i1 %24 to i8
  store i8 %25, ptr %11, align 1
  br label %26

26:                                               ; preds = %22
  br label %27

27:                                               ; preds = %26
  store i32 -1, ptr %10, align 4
  br label %89

28:                                               ; No predecessors!
  br label %29

29:                                               ; preds = %28
  br label %30

30:                                               ; preds = %29, %3
  %31 = load ptr, ptr %4, align 8
  %32 = getelementptr inbounds %struct.H5O_loc_t, ptr %31, i32 0, i32 0
  %33 = load ptr, ptr %32, align 8
  %34 = getelementptr inbounds %struct.H5O_stab_t, ptr %8, i32 0, i32 1
  %35 = load i64, ptr %34, align 8
  %36 = call ptr @H5HL_protect(ptr noundef %33, i64 noundef %35, i32 noundef 0)
  store ptr %36, ptr %7, align 8
  %37 = icmp eq ptr null, %36
  br i1 %37, label %38, label %53

38:                                               ; preds = %30
  br label %39

39:                                               ; preds = %38
  br label %40

40:                                               ; preds = %39
  br label %41

41:                                               ; preds = %40
  %42 = load i64, ptr @H5E_SYM_g, align 8
  %43 = load i64, ptr @H5E_PROTECT_g, align 8
  %44 = call i32 (ptr, ptr, i32, i64, i64, ptr, ...) @H5E_printf_stack(ptr noundef @.str, ptr noundef @__func__.H5G__stab_remove, i32 noundef 328, i64 noundef %42, i64 noundef %43, ptr noundef @.str.3)
  br label %45

45:                                               ; preds = %41
  store i8 1, ptr %11, align 1
  %46 = load i8, ptr %11, align 1
  %47 = trunc i8 %46 to i1
  %48 = zext i1 %47 to i8
  store i8 %48, ptr %11, align 1
  br label %49

49:                                               ; preds = %45
  br label %50

50:                                               ; preds = %49
  store i32 -1, ptr %10, align 4
  br label %89

51:                                               ; No predecessors!
  br label %52

52:                                               ; preds = %51
  br label %53

53:                                               ; preds = %52, %30
  %54 = load ptr, ptr %6, align 8
  %55 = getelementptr inbounds %struct.H5G_bt_rm_t, ptr %9, i32 0, i32 0
  %56 = getelementptr inbounds %struct.H5G_bt_common_t, ptr %55, i32 0, i32 0
  store ptr %54, ptr %56, align 8
  %57 = load ptr, ptr %7, align 8
  %58 = getelementptr inbounds %struct.H5G_bt_rm_t, ptr %9, i32 0, i32 0
  %59 = getelementptr inbounds %struct.H5G_bt_common_t, ptr %58, i32 0, i32 1
  store ptr %57, ptr %59, align 8
  %60 = load ptr, ptr %7, align 8
  %61 = call i64 @H5HL_heap_get_size(ptr noundef %60)
  %62 = getelementptr inbounds %struct.H5G_bt_rm_t, ptr %9, i32 0, i32 0
  %63 = getelementptr inbounds %struct.H5G_bt_common_t, ptr %62, i32 0, i32 2
  store i64 %61, ptr %63, align 8
  %64 = load ptr, ptr %5, align 8
  %65 = getelementptr inbounds %struct.H5G_bt_rm_t, ptr %9, i32 0, i32 1
  store ptr %64, ptr %65, align 8
  %66 = load ptr, ptr %4, align 8
  %67 = getelementptr inbounds %struct.H5O_loc_t, ptr %66, i32 0, i32 0
  %68 = load ptr, ptr %67, align 8
  %69 = getelementptr inbounds %struct.H5O_stab_t, ptr %8, i32 0, i32 0
  %70 = load i64, ptr %69, align 8
  %71 = call i32 @H5B_remove(ptr noundef %68, ptr noundef @H5B_SNODE, i64 noundef %70, ptr noundef %9)
  %72 = icmp slt i32 %71, 0
  br i1 %72, label %73, label %88

73:                                               ; preds = %53
  br label %74

74:                                               ; preds = %73
  br label %75

75:                                               ; preds = %74
  br label %76

76:                                               ; preds = %75
  %77 = load i64, ptr @H5E_SYM_g, align 8
  %78 = load i64, ptr @H5E_CANTINIT_g, align 8
  %79 = call i32 (ptr, ptr, i32, i64, i64, ptr, ...) @H5E_printf_stack(ptr noundef @.str, ptr noundef @__func__.H5G__stab_remove, i32 noundef 338, i64 noundef %77, i64 noundef %78, ptr noundef @.str.12)
  br label %80

80:                                               ; preds = %76
  store i8 1, ptr %11, align 1
  %81 = load i8, ptr %11, align 1
  %82 = trunc i8 %81 to i1
  %83 = zext i1 %82 to i8
  store i8 %83, ptr %11, align 1
  br label %84

84:                                               ; preds = %80
  br label %85

85:                                               ; preds = %84
  store i32 -1, ptr %10, align 4
  br label %89

86:                                               ; No predecessors!
  br label %87

87:                                               ; preds = %86
  br label %88

88:                                               ; preds = %87, %53
  br label %89

89:                                               ; preds = %88, %85, %50, %27
  %90 = load ptr, ptr %7, align 8
  %91 = icmp ne ptr %90, null
  br i1 %91, label %92, label %109

92:                                               ; preds = %89
  %93 = load ptr, ptr %7, align 8
  %94 = call i32 @H5HL_unprotect(ptr noundef %93)
  %95 = icmp slt i32 %94, 0
  br i1 %95, label %96, label %109

96:                                               ; preds = %92
  br label %97

97:                                               ; preds = %96
  br label %98

98:                                               ; preds = %97
  br label %99

99:                                               ; preds = %98
  %100 = load i64, ptr @H5E_SYM_g, align 8
  %101 = load i64, ptr @H5E_PROTECT_g, align 8
  %102 = call i32 (ptr, ptr, i32, i64, i64, ptr, ...) @H5E_printf_stack(ptr noundef @.str, ptr noundef @__func__.H5G__stab_remove, i32 noundef 343, i64 noundef %100, i64 noundef %101, ptr noundef @.str.6)
  br label %103

103:                                              ; preds = %99
  store i8 1, ptr %11, align 1
  %104 = load i8, ptr %11, align 1
  %105 = trunc i8 %104 to i1
  %106 = zext i1 %105 to i8
  store i8 %106, ptr %11, align 1
  br label %107

107:                                              ; preds = %103
  store i32 -1, ptr %10, align 4
  br label %108

108:                                              ; preds = %107
  br label %109

109:                                              ; preds = %108, %92, %89
  %110 = load i32, ptr %10, align 4
  ret i32 %110
}