; Function Attrs: nounwind uwtable
define range(i32 -1, 1) i32 @H5G__stab_remove(ptr noundef %0, ptr noundef %1, ptr noundef %2) local_unnamed_addr #0 {
  %4 = alloca %struct.H5O_stab_t, align 8
  %5 = alloca %struct.H5G_bt_rm_t, align 8
  %6 = call ptr @H5O_msg_read(ptr noundef %0, i32 noundef 17, ptr noundef nonnull %4) #6
  %7 = icmp eq ptr %6, null
  br i1 %7, label %8, label %12

8:                                                ; preds = %3
  %9 = load i64, ptr @H5E_SYM_g, align 8
  %10 = load i64, ptr @H5E_BADMESG_g, align 8
  %11 = call i32 (ptr, ptr, i32, i64, i64, ptr, ...) @H5E_printf_stack(ptr noundef nonnull @.str, ptr noundef nonnull @__func__.H5G__stab_remove, i32 noundef 324, i64 noundef %9, i64 noundef %10, ptr noundef nonnull @.str.10) #6
  br label %.thread

12:                                               ; preds = %3
  %13 = load ptr, ptr %0, align 8
  %14 = getelementptr inbounds i8, ptr %4, i64 8
  %15 = load i64, ptr %14, align 8
  %16 = call ptr @H5HL_protect(ptr noundef %13, i64 noundef %15, i32 noundef 0) #6
  %17 = icmp eq ptr %16, null
  br i1 %17, label %18, label %22

18:                                               ; preds = %12
  %19 = load i64, ptr @H5E_SYM_g, align 8
  %20 = load i64, ptr @H5E_PROTECT_g, align 8
  %21 = call i32 (ptr, ptr, i32, i64, i64, ptr, ...) @H5E_printf_stack(ptr noundef nonnull @.str, ptr noundef nonnull @__func__.H5G__stab_remove, i32 noundef 328, i64 noundef %19, i64 noundef %20, ptr noundef nonnull @.str.3) #6
  br label %.thread

22:                                               ; preds = %12
  store ptr %2, ptr %5, align 8
  %23 = getelementptr inbounds i8, ptr %5, i64 8
  store ptr %16, ptr %23, align 8
  %24 = call i64 @H5HL_heap_get_size(ptr noundef nonnull %16) #6
  %25 = getelementptr inbounds i8, ptr %5, i64 16
  store i64 %24, ptr %25, align 8
  %26 = getelementptr inbounds i8, ptr %5, i64 24
  store ptr %1, ptr %26, align 8
  %27 = load ptr, ptr %0, align 8
  %28 = load i64, ptr %4, align 8
  %29 = call i32 @H5B_remove(ptr noundef %27, ptr noundef nonnull @H5B_SNODE, i64 noundef %28, ptr noundef nonnull %5) #6
  %30 = icmp slt i32 %29, 0
  br i1 %30, label %31, label %35

31:                                               ; preds = %22
  %32 = load i64, ptr @H5E_SYM_g, align 8
  %33 = load i64, ptr @H5E_CANTINIT_g, align 8
  %34 = call i32 (ptr, ptr, i32, i64, i64, ptr, ...) @H5E_printf_stack(ptr noundef nonnull @.str, ptr noundef nonnull @__func__.H5G__stab_remove, i32 noundef 338, i64 noundef %32, i64 noundef %33, ptr noundef nonnull @.str.12) #6
  br label %35

35:                                               ; preds = %31, %22
  %.0 = phi i32 [ -1, %31 ], [ 0, %22 ]
  %36 = call i32 @H5HL_unprotect(ptr noundef nonnull %16) #6
  %37 = icmp slt i32 %36, 0
  br i1 %37, label %38, label %.thread

38:                                               ; preds = %35
  %39 = load i64, ptr @H5E_SYM_g, align 8
  %40 = load i64, ptr @H5E_PROTECT_g, align 8
  %41 = call i32 (ptr, ptr, i32, i64, i64, ptr, ...) @H5E_printf_stack(ptr noundef nonnull @.str, ptr noundef nonnull @__func__.H5G__stab_remove, i32 noundef 343, i64 noundef %39, i64 noundef %40, ptr noundef nonnull @.str.6) #6
  br label %.thread

.thread:                                          ; preds = %18, %8, %38, %35
  %.1 = phi i32 [ -1, %38 ], [ %.0, %35 ], [ -1, %8 ], [ -1, %18 ]
  ret i32 %.1
}